Certificate:
    Data:
        Version: 3 (0x2)
        Serial Number:
            ec:77:22:26:f4:49:0a:27
    Signature Algorithm: sha256WithRSAEncryption
        Issuer: C=XX, L=Default City, O=Default Company Ltd, CN=ec2-54-211-95-78.compute-1.amazonaws.com
        Validity
            Not Before: Mar 28 21:47:00 2018 GMT
            Not After : Mar 28 21:47:00 2019 GMT
        Subject: C=XX, L=Default City, O=Default Company Ltd, CN=ec2-54-211-95-78.compute-1.amazonaws.com
        Subject Public Key Info:
            Public Key Algorithm: rsaEncryption
                Public-Key: (2048 bit)
                Modulus:
                    00:c2:0a:2d:21:f5:5a:a2:86:47:93:43:12:13:41:
                    9b:5d:85:a0:26:7f:dc:dd:8b:f8:c9:d5:f8:88:c0:
                    64:c5:3c:60:27:3d:aa:5d:bd:c4:2d:30:53:a9:f3:
                    8a:c6:63:bd:1d:9c:58:b8:13:88:93:f6:48:a1:6b:
                    d0:0d:6c:32:c8:01:d2:f6:93:0c:4f:7b:72:37:d7:
                    c5:21:17:ed:4c:18:00:37:d3:6a:7b:00:37:41:31:
                    79:2c:91:f0:f7:cc:2f:6b:50:cd:1e:97:33:1d:a7:
                    cf:fc:a2:38:17:4a:4f:79:34:9e:35:6b:a1:cd:f3:
                    c1:e9:b1:05:10:d3:82:c8:66:1e:7f:d1:eb:41:65:
                    10:88:6a:af:71:10:de:88:bc:d5:f5:c8:8e:a4:37:
                    ba:05:90:91:af:35:38:e6:75:90:43:9f:0c:07:f1:
                    e1:f9:ca:89:e7:08:1d:f0:c6:57:f2:bd:35:0e:35:
                    4f:9a:d2:e3:fc:61:4b:5f:19:56:68:4d:9b:cd:c3:
                    95:62:3b:29:dc:4b:53:1e:0c:2f:a6:d4:2b:f7:49:
                    b1:69:30:3b:e2:03:a6:18:bc:13:81:7e:db:be:eb:
                    f1:f1:2f:7a:42:eb:06:f7:02:b4:3d:08:09:aa:9a:
                    e9:ec:b0:c1:fa:3d:ec:5b:0d:03:41:e6:32:3c:cf:
                    66:77
                Exponent: 65537 (0x10001)
        X509v3 extensions:
            X509v3 Subject Key Identifier: 
                CA:FC:16:58:6D:A3:BA:C3:F1:80:E8:A6:E8:5C:F0:0A:D6:11:3F:45
            X509v3 Authority Key Identifier: 
                keyid:CA:FC:16:58:6D:A3:BA:C3:F1:80:E8:A6:E8:5C:F0:0A:D6:11:3F:45

            X509v3 Basic Constraints: 
                CA:TRUE
    Signature Algorithm: sha256WithRSAEncryption
         2c:d8:59:e6:04:64:63:18:01:89:f8:dc:5e:f3:ee:c7:e5:41:
         0f:d5:7f:62:e6:d3:12:84:d7:d2:fa:35:b9:22:c2:a1:28:04:
         c0:1d:7d:43:54:04:38:03:e3:81:d5:5e:c9:34:a2:5b:e7:4f:
         c6:21:3b:f7:92:d4:31:23:8e:bc:09:fe:d3:4e:bb:38:33:9c:
         fb:00:a0:e8:f8:9d:64:74:fc:5f:ea:70:20:b9:af:69:d8:3c:
         1d:5b:9a:e7:c3:b9:be:1a:9b:95:9d:b8:d9:9c:98:4c:77:90:
         5e:68:e6:04:b5:a3:df:ae:3b:6c:e5:1b:05:d9:65:e1:06:5e:
         d4:5a:dc:3c:87:21:b0:2c:67:90:a4:81:85:bf:c3:d4:f7:b2:
         82:d7:40:ad:ff:07:f8:18:e5:5d:fe:37:50:84:17:87:3a:dd:
         cd:b7:4c:d8:e7:3e:5c:c7:7c:00:38:d6:73:aa:7e:70:96:6c:
         32:ae:a9:b3:a6:be:04:62:30:ef:cb:22:59:ac:70:b3:b6:54:
         30:f7:e6:d1:07:fa:4e:2a:63:86:91:b4:4f:cc:89:c6:79:87:
         a9:42:65:63:a6:ef:b4:59:ad:2e:e8:13:ac:09:ad:46:6e:f6:
         e7:5a:4d:56:24:01:d9:43:4a:ce:4d:34:00:a4:a8:19:30:b3:
         17:9b:cd:3d
-----BEGIN CERTIFICATE-----
MIIDvTCCAqWgAwIBAgIJAOx3Iib0SQonMA0GCSqGSIb3DQEBCwUAMHUxCzAJBgNV
BAYTAlhYMRUwEwYDVQQHDAxEZWZhdWx0IENpdHkxHDAaBgNVBAoME0RlZmF1bHQg
Q29tcGFueSBMdGQxMTAvBgNVBAMMKGVjMi01NC0yMTEtOTUtNzguY29tcHV0ZS0x
LmFtYXpvbmF3cy5jb20wHhcNMTgwMzI4MjE0NzAwWhcNMTkwMzI4MjE0NzAwWjB1
MQswCQYDVQQGEwJYWDEVMBMGA1UEBwwMRGVmYXVsdCBDaXR5MRwwGgYDVQQKDBNE
ZWZhdWx0IENvbXBhbnkgTHRkMTEwLwYDVQQDDChlYzItNTQtMjExLTk1LTc4LmNv
bXB1dGUtMS5hbWF6b25hd3MuY29tMIIBIjANBgkqhkiG9w0BAQEFAAOCAQ8AMIIB
CgKCAQEAwgotIfVaooZHk0MSE0GbXYWgJn/c3Yv4ydX4iMBkxTxgJz2qXb3ELTBT
qfOKxmO9HZxYuBOIk/ZIoWvQDWwyyAHS9pMMT3tyN9fFIRftTBgAN9NqewA3QTF5
LJHw98wva1DNHpczHafP/KI4F0pPeTSeNWuhzfPB6bEFENOCyGYef9HrQWUQiGqv
cRDeiLzV9ciOpDe6BZCRrzU45nWQQ58MB/Hh+cqJ5wgd8MZX8r01DjVPmtLj/GFL
XxlWaE2bzcOVYjsp3EtTHgwvptQr90mxaTA74gOmGLwTgX7bvuvx8S96QusG9wK0
PQgJqprp7LDB+j3sWw0DQeYyPM9mdwIDAQABo1AwTjAdBgNVHQ4EFgQUyvwWWG2j
usPxgOim6FzwCtYRP0UwHwYDVR0jBBgwFoAUyvwWWG2jusPxgOim6FzwCtYRP0Uw
DAYDVR0TBAUwAwEB/zANBgkqhkiG9w0BAQsFAAOCAQEALNhZ5gRkYxgBifjcXvPu
x+VBD9V/YubTEoTX0vo1uSLCoSgEwB19Q1QEOAPjgdVeyTSiW+dPxiE795LUMSOO
vAn+0067ODOc+wCg6PidZHT8X+pwILmvadg8HVua58O5vhqblZ242ZyYTHeQXmjm
BLWj3647bOUbBdll4QZe1FrcPIchsCxnkKSBhb/D1PeygtdArf8H+BjlXf43UIQX
hzrdzbdM2Oc+XMd8ADjWc6p+cJZsMq6ps6a+BGIw78siWaxws7ZUMPfm0Qf6Tipj
hpG0T8yJxnmHqUJlY6bvtFmtLugTrAmtRm7251pNViQB2UNKzk00AKSoGTCzF5vN
PQ==
-----END CERTIFICATE-----
